target datalayout = "e-m:e-p270:32:32-p271:32:32-p272:64:64-i64:64-i128:128-f80:128-n8:16:32:64-S128"
target triple = "x86_64-pc-linux-gnu"

%struct.BrinBuildState = type { ptr, double, double, i32, i32, i32, i32, ptr, ptr, ptr, ptr, i64, ptr, ptr, i32, ptr }
%struct.BrinShared = type { i32, i32, i8, i32, i32, i64, %struct.ConditionVariable, i8, i32, double, double }
%struct.ConditionVariable = type { i8, %struct.proclist_head }
%struct.proclist_head = type { i32, i32 }
%struct.BufferUsage = type { i64, i64, i64, i64, i64, i64, i64, i64, i64, i64, %struct.instr_time, %struct.instr_time, %struct.instr_time, %struct.instr_time, %struct.instr_time, %struct.instr_time }
%struct.instr_time = type { i64 }
%struct.WalUsage = type { i64, i64, i64, i64 }

@CurrentMemoryContext = external global ptr, align 8
@maintenance_work_mem = external global i32, align 4
@debug_query_string = external global ptr, align 8
@ParallelWorkerNumber = external global i32, align 4

; Function Attrs: nounwind uwtable
define internal ptr @initialize_brin_buildstate(ptr noundef %0, ptr noundef %1, i32 noundef %2, i32 noundef %3) #0 {
  %5 = alloca ptr, align 8
  %6 = alloca ptr, align 8
  %7 = alloca i32, align 4
  %8 = alloca i32, align 4
  %9 = alloca ptr, align 8
  %10 = alloca i32, align 4
  store ptr %0, ptr %5, align 8
  store ptr %1, ptr %6, align 8
  store i32 %2, ptr %7, align 4
  store i32 %3, ptr %8, align 4
  call void @llvm.lifetime.start.p0(i64 8, ptr %9) #9
  call void @llvm.lifetime.start.p0(i64 4, ptr %10) #9
  store i32 0, ptr %10, align 4
  %11 = call ptr @palloc(i64 noundef 112)
  store ptr %11, ptr %9, align 8
  %12 = load ptr, ptr %5, align 8
  %13 = load ptr, ptr %9, align 8
  %14 = getelementptr inbounds nuw %struct.BrinBuildState, ptr %13, i32 0, i32 0
  store ptr %12, ptr %14, align 8
  %15 = load ptr, ptr %9, align 8
  %16 = getelementptr inbounds nuw %struct.BrinBuildState, ptr %15, i32 0, i32 1
  store double 0.000000e+00, ptr %16, align 8
  %17 = load ptr, ptr %9, align 8
  %18 = getelementptr inbounds nuw %struct.BrinBuildState, ptr %17, i32 0, i32 2
  store double 0.000000e+00, ptr %18, align 8
  %19 = load ptr, ptr %9, align 8
  %20 = getelementptr inbounds nuw %struct.BrinBuildState, ptr %19, i32 0, i32 3
  store i32 0, ptr %20, align 8
  %21 = load i32, ptr %7, align 4
  %22 = load ptr, ptr %9, align 8
  %23 = getelementptr inbounds nuw %struct.BrinBuildState, ptr %22, i32 0, i32 4
  store i32 %21, ptr %23, align 4
  %24 = load ptr, ptr %9, align 8
  %25 = getelementptr inbounds nuw %struct.BrinBuildState, ptr %24, i32 0, i32 5
  store i32 0, ptr %25, align 8
  %26 = load ptr, ptr %6, align 8
  %27 = load ptr, ptr %9, align 8
  %28 = getelementptr inbounds nuw %struct.BrinBuildState, ptr %27, i32 0, i32 7
  store ptr %26, ptr %28, align 8
  %29 = load ptr, ptr %5, align 8
  %30 = call ptr @brin_build_desc(ptr noundef %29)
  %31 = load ptr, ptr %9, align 8
  %32 = getelementptr inbounds nuw %struct.BrinBuildState, ptr %31, i32 0, i32 8
  store ptr %30, ptr %32, align 8
  %33 = load ptr, ptr %9, align 8
  %34 = getelementptr inbounds nuw %struct.BrinBuildState, ptr %33, i32 0, i32 8
  %35 = load ptr, ptr %34, align 8
  %36 = call ptr @brin_new_memtuple(ptr noundef %35)
  %37 = load ptr, ptr %9, align 8
  %38 = getelementptr inbounds nuw %struct.BrinBuildState, ptr %37, i32 0, i32 9
  store ptr %36, ptr %38, align 8
  %39 = load ptr, ptr %9, align 8
  %40 = getelementptr inbounds nuw %struct.BrinBuildState, ptr %39, i32 0, i32 13
  store ptr null, ptr %40, align 8
  %41 = load ptr, ptr %9, align 8
  %42 = getelementptr inbounds nuw %struct.BrinBuildState, ptr %41, i32 0, i32 14
  store i32 0, ptr %42, align 8
  %43 = load ptr, ptr %9, align 8
  %44 = getelementptr inbounds nuw %struct.BrinBuildState, ptr %43, i32 0, i32 15
  store ptr null, ptr %44, align 8
  %45 = load ptr, ptr @CurrentMemoryContext, align 8
  %46 = load ptr, ptr %9, align 8
  %47 = getelementptr inbounds nuw %struct.BrinBuildState, ptr %46, i32 0, i32 12
  store ptr %45, ptr %47, align 8
  %48 = load ptr, ptr %9, align 8
  %49 = getelementptr inbounds nuw %struct.BrinBuildState, ptr %48, i32 0, i32 10
  store ptr null, ptr %49, align 8
  %50 = load ptr, ptr %9, align 8
  %51 = getelementptr inbounds nuw %struct.BrinBuildState, ptr %50, i32 0, i32 11
  store i64 0, ptr %51, align 8
  %52 = load ptr, ptr @CurrentMemoryContext, align 8
  %53 = load ptr, ptr %9, align 8
  %54 = getelementptr inbounds nuw %struct.BrinBuildState, ptr %53, i32 0, i32 12
  store ptr %52, ptr %54, align 8
  %55 = load ptr, ptr %9, align 8
  %56 = getelementptr inbounds nuw %struct.BrinBuildState, ptr %55, i32 0, i32 10
  store ptr null, ptr %56, align 8
  %57 = load ptr, ptr %9, align 8
  %58 = getelementptr inbounds nuw %struct.BrinBuildState, ptr %57, i32 0, i32 11
  store i64 0, ptr %58, align 8
  %59 = load i32, ptr %8, align 4
  %60 = icmp ugt i32 %59, 0
  br i1 %60, label %61, label %68

61:                                               ; preds = %4
  %62 = load i32, ptr %8, align 4
  %63 = sub i32 %62, 1
  %64 = load i32, ptr %7, align 4
  %65 = udiv i32 %63, %64
  %66 = load i32, ptr %7, align 4
  %67 = mul i32 %65, %66
  store i32 %67, ptr %10, align 4
  br label %68

68:                                               ; preds = %61, %4
  %69 = load i32, ptr %10, align 4
  %70 = load ptr, ptr %9, align 8
  %71 = getelementptr inbounds nuw %struct.BrinBuildState, ptr %70, i32 0, i32 4
  %72 = load i32, ptr %71, align 4
  %73 = add i32 %69, %72
  %74 = load ptr, ptr %9, align 8
  %75 = getelementptr inbounds nuw %struct.BrinBuildState, ptr %74, i32 0, i32 6
  store i32 %73, ptr %75, align 4
  %76 = load ptr, ptr %9, align 8
  call void @llvm.lifetime.end.p0(i64 4, ptr %10) #9
  call void @llvm.lifetime.end.p0(i64 8, ptr %9) #9
  ret ptr %76
}

; Function Attrs: nounwind uwtable
define dso_local void @_brin_parallel_build_main(ptr noundef %0, ptr noundef %1) #0 {
  %3 = alloca ptr, align 8
  %4 = alloca ptr, align 8
  %5 = alloca ptr, align 8
  %6 = alloca ptr, align 8
  %7 = alloca ptr, align 8
  %8 = alloca ptr, align 8
  %9 = alloca ptr, align 8
  %10 = alloca ptr, align 8
  %11 = alloca i32, align 4
  %12 = alloca i32, align 4
  %13 = alloca ptr, align 8
  %14 = alloca ptr, align 8
  %15 = alloca i32, align 4
  store ptr %0, ptr %3, align 8
  store ptr %1, ptr %4, align 8
  call void @llvm.lifetime.start.p0(i64 8, ptr %5) #9
  call void @llvm.lifetime.start.p0(i64 8, ptr %6) #9
  call void @llvm.lifetime.start.p0(i64 8, ptr %7) #9
  call void @llvm.lifetime.start.p0(i64 8, ptr %8) #9
  call void @llvm.lifetime.start.p0(i64 8, ptr %9) #9
  call void @llvm.lifetime.start.p0(i64 8, ptr %10) #9
  call void @llvm.lifetime.start.p0(i64 4, ptr %11) #9
  call void @llvm.lifetime.start.p0(i64 4, ptr %12) #9
  call void @llvm.lifetime.start.p0(i64 8, ptr %13) #9
  call void @llvm.lifetime.start.p0(i64 8, ptr %14) #9
  call void @llvm.lifetime.start.p0(i64 4, ptr %15) #9
  %16 = load ptr, ptr %4, align 8
  %17 = call ptr @shm_toc_lookup(ptr noundef %16, i64 noundef -5764607523034234877, i1 noundef zeroext true)
  store ptr %17, ptr %5, align 8
  %18 = load ptr, ptr %5, align 8
  store ptr %18, ptr @debug_query_string, align 8
  %19 = load ptr, ptr @debug_query_string, align 8
  call void @pgstat_report_activity(i32 noundef 2, ptr noundef %19)
  %20 = load ptr, ptr %4, align 8
  %21 = call ptr @shm_toc_lookup(ptr noundef %20, i64 noundef -5764607523034234879, i1 noundef zeroext false)
  store ptr %21, ptr %6, align 8
  %22 = load ptr, ptr %6, align 8
  %23 = getelementptr inbounds nuw %struct.BrinShared, ptr %22, i32 0, i32 2
  %24 = load i8, ptr %23, align 8, !range !4, !noundef !5
  %25 = trunc i8 %24 to i1
  br i1 %25, label %27, label %26

26:                                               ; preds = %2
  store i32 5, ptr %11, align 4
  store i32 8, ptr %12, align 4
  br label %28

27:                                               ; preds = %2
  store i32 4, ptr %11, align 4
  store i32 3, ptr %12, align 4
  br label %28

28:                                               ; preds = %27, %26
  %29 = load ptr, ptr %6, align 8
  %30 = getelementptr inbounds nuw %struct.BrinShared, ptr %29, i32 0, i32 5
  %31 = load i64, ptr %30, align 8
  call void @pgstat_report_query_id(i64 noundef %31, i1 noundef zeroext false)
  %32 = load ptr, ptr %6, align 8
  %33 = getelementptr inbounds nuw %struct.BrinShared, ptr %32, i32 0, i32 0
  %34 = load i32, ptr %33, align 8
  %35 = load i32, ptr %11, align 4
  %36 = call ptr @table_open(i32 noundef %34, i32 noundef %35)
  store ptr %36, ptr %9, align 8
  %37 = load ptr, ptr %6, align 8
  %38 = getelementptr inbounds nuw %struct.BrinShared, ptr %37, i32 0, i32 1
  %39 = load i32, ptr %38, align 4
  %40 = load i32, ptr %12, align 4
  %41 = call ptr @index_open(i32 noundef %39, i32 noundef %40)
  store ptr %41, ptr %10, align 8
  %42 = load ptr, ptr %10, align 8
  %43 = load ptr, ptr %6, align 8
  %44 = getelementptr inbounds nuw %struct.BrinShared, ptr %43, i32 0, i32 3
  %45 = load i32, ptr %44, align 4
  %46 = call ptr @initialize_brin_buildstate(ptr noundef %42, ptr noundef null, i32 noundef %45, i32 noundef -1)
  store ptr %46, ptr %8, align 8
  %47 = load ptr, ptr %4, align 8
  %48 = call ptr @shm_toc_lookup(ptr noundef %47, i64 noundef -5764607523034234878, i1 noundef zeroext false)
  store ptr %48, ptr %7, align 8
  %49 = load ptr, ptr %7, align 8
  %50 = load ptr, ptr %3, align 8
  call void @tuplesort_attach_shared(ptr noundef %49, ptr noundef %50)
  call void @InstrStartParallelQuery()
  %51 = load i32, ptr @maintenance_work_mem, align 4
  %52 = load ptr, ptr %6, align 8
  %53 = getelementptr inbounds nuw %struct.BrinShared, ptr %52, i32 0, i32 4
  %54 = load i32, ptr %53, align 8
  %55 = sdiv i32 %51, %54
  store i32 %55, ptr %15, align 4
  %56 = load ptr, ptr %8, align 8
  %57 = load ptr, ptr %6, align 8
  %58 = load ptr, ptr %7, align 8
  %59 = load ptr, ptr %9, align 8
  %60 = load ptr, ptr %10, align 8
  %61 = load i32, ptr %15, align 4
  call void @_brin_parallel_scan_and_build(ptr noundef %56, ptr noundef %57, ptr noundef %58, ptr noundef %59, ptr noundef %60, i32 noundef %61, i1 noundef zeroext false)
  %62 = load ptr, ptr %4, align 8
  %63 = call ptr @shm_toc_lookup(ptr noundef %62, i64 noundef -5764607523034234875, i1 noundef zeroext false)
  store ptr %63, ptr %14, align 8
  %64 = load ptr, ptr %4, align 8
  %65 = call ptr @shm_toc_lookup(ptr noundef %64, i64 noundef -5764607523034234876, i1 noundef zeroext false)
  store ptr %65, ptr %13, align 8
  %66 = load ptr, ptr %14, align 8
  %67 = load i32, ptr @ParallelWorkerNumber, align 4
  %68 = sext i32 %67 to i64
  %69 = getelementptr inbounds %struct.BufferUsage, ptr %66, i64 %68
  %70 = load ptr, ptr %13, align 8
  %71 = load i32, ptr @ParallelWorkerNumber, align 4
  %72 = sext i32 %71 to i64
  %73 = getelementptr inbounds %struct.WalUsage, ptr %70, i64 %72
  call void @InstrEndParallelQuery(ptr noundef %69, ptr noundef %73)
  %74 = load ptr, ptr %10, align 8
  %75 = load i32, ptr %12, align 4
  call void @index_close(ptr noundef %74, i32 noundef %75)
  %76 = load ptr, ptr %9, align 8
  %77 = load i32, ptr %11, align 4
  call void @table_close(ptr noundef %76, i32 noundef %77)
  call void @llvm.lifetime.end.p0(i64 4, ptr %15) #9
  call void @llvm.lifetime.end.p0(i64 8, ptr %14) #9
  call void @llvm.lifetime.end.p0(i64 8, ptr %13) #9
  call void @llvm.lifetime.end.p0(i64 4, ptr %12) #9
  call void @llvm.lifetime.end.p0(i64 4, ptr %11) #9
  call void @llvm.lifetime.end.p0(i64 8, ptr %10) #9
  call void @llvm.lifetime.end.p0(i64 8, ptr %9) #9
  call void @llvm.lifetime.end.p0(i64 8, ptr %8) #9
  call void @llvm.lifetime.end.p0(i64 8, ptr %7) #9
  call void @llvm.lifetime.end.p0(i64 8, ptr %6) #9
  call void @llvm.lifetime.end.p0(i64 8, ptr %5) #9
  ret void
}