; Function Attrs: nounwind uwtable
define dso_local void @_brin_parallel_build_main(ptr noundef %0, ptr noundef %1) local_unnamed_addr #0 {
  %3 = tail call ptr @shm_toc_lookup(ptr noundef %1, i64 noundef -5764607523034234877, i1 noundef zeroext true) #10
  store ptr %3, ptr @debug_query_string, align 8
  tail call void @pgstat_report_activity(i32 noundef 2, ptr noundef %3) #10
  %4 = tail call ptr @shm_toc_lookup(ptr noundef %1, i64 noundef -5764607523034234879, i1 noundef zeroext false) #10
  %5 = getelementptr inbounds nuw i8, ptr %4, i64 8
  %6 = load i8, ptr %5, align 8, !range !4, !noundef !5
  %7 = trunc nuw i8 %6 to i1
  %. = select i1 %7, i32 3, i32 8
  %.29 = select i1 %7, i32 4, i32 5
  %8 = getelementptr inbounds nuw i8, ptr %4, i64 24
  %9 = load i64, ptr %8, align 8
  tail call void @pgstat_report_query_id(i64 noundef %9, i1 noundef zeroext false) #10
  %10 = load i32, ptr %4, align 8
  %11 = tail call ptr @table_open(i32 noundef %10, i32 noundef %.29) #10
  %12 = getelementptr inbounds nuw i8, ptr %4, i64 4
  %13 = load i32, ptr %12, align 4
  %14 = tail call ptr @index_open(i32 noundef %13, i32 noundef %.) #10
  %15 = getelementptr inbounds nuw i8, ptr %4, i64 12
  %16 = load i32, ptr %15, align 4
  %17 = tail call ptr @palloc(i64 noundef 112) #10
  store ptr %14, ptr %17, align 8
  %18 = getelementptr inbounds nuw i8, ptr %17, i64 8
  %19 = getelementptr inbounds nuw i8, ptr %17, i64 28
  tail call void @llvm.memset.p0.i64(ptr noundef nonnull align 8 dereferenceable(20) %18, i8 0, i64 20, i1 false)
  store i32 %16, ptr %19, align 4
  %20 = getelementptr inbounds nuw i8, ptr %17, i64 32
  store i32 0, ptr %20, align 8
  %21 = getelementptr inbounds nuw i8, ptr %17, i64 40
  store ptr null, ptr %21, align 8
  %22 = tail call ptr @brin_build_desc(ptr noundef %14)
  %23 = getelementptr inbounds nuw i8, ptr %17, i64 48
  store ptr %22, ptr %23, align 8
  %24 = tail call ptr @brin_new_memtuple(ptr noundef %22) #10
  %25 = getelementptr inbounds nuw i8, ptr %17, i64 56
  store ptr %24, ptr %25, align 8
  %26 = getelementptr inbounds nuw i8, ptr %17, i64 88
  store ptr null, ptr %26, align 8
  %27 = getelementptr inbounds nuw i8, ptr %17, i64 96
  store i32 0, ptr %27, align 8
  %28 = getelementptr inbounds nuw i8, ptr %17, i64 104
  store ptr null, ptr %28, align 8
  %29 = load ptr, ptr @CurrentMemoryContext, align 8
  %30 = getelementptr inbounds nuw i8, ptr %17, i64 80
  %31 = getelementptr inbounds nuw i8, ptr %17, i64 64
  store ptr %29, ptr %30, align 8
  tail call void @llvm.memset.p0.i64(ptr noundef nonnull align 8 dereferenceable(16) %31, i8 0, i64 16, i1 false)
  %32 = urem i32 -2, %16
  %33 = load i32, ptr %19, align 4
  %reass.sub30 = sub i32 %33, %32
  %34 = add i32 %reass.sub30, -2
  %35 = getelementptr inbounds nuw i8, ptr %17, i64 36
  store i32 %34, ptr %35, align 4
  %36 = tail call ptr @shm_toc_lookup(ptr noundef %1, i64 noundef -5764607523034234878, i1 noundef zeroext false) #10
  tail call void @tuplesort_attach_shared(ptr noundef %36, ptr noundef %0) #10
  tail call void @InstrStartParallelQuery() #10
  %37 = load i32, ptr @maintenance_work_mem, align 4
  %38 = getelementptr inbounds nuw i8, ptr %4, i64 16
  %39 = load i32, ptr %38, align 8
  %40 = sdiv i32 %37, %39
  tail call fastcc void @_brin_parallel_scan_and_build(ptr noundef nonnull %17, ptr noundef nonnull %4, ptr noundef %36, ptr noundef %11, ptr noundef %14, i32 noundef %40)
  %41 = tail call ptr @shm_toc_lookup(ptr noundef %1, i64 noundef -5764607523034234875, i1 noundef zeroext false) #10
  %42 = tail call ptr @shm_toc_lookup(ptr noundef %1, i64 noundef -5764607523034234876, i1 noundef zeroext false) #10
  %43 = load i32, ptr @ParallelWorkerNumber, align 4
  %44 = sext i32 %43 to i64
  %45 = getelementptr inbounds %struct.BufferUsage, ptr %41, i64 %44
  %46 = getelementptr inbounds %struct.WalUsage, ptr %42, i64 %44
  tail call void @InstrEndParallelQuery(ptr noundef %45, ptr noundef %46) #10
  tail call void @index_close(ptr noundef %14, i32 noundef %.) #10
  tail call void @table_close(ptr noundef %11, i32 noundef %.29) #10
  ret void
}